Certificate:
    Data:
        Version: 3 (0x2)
        Serial Number: 1 (0x1)
        Signature Algorithm: sha256WithRSAEncryption
        Issuer: C=FR, ST=Radius, L=Somewhere, O=Example Inc./emailAddress=admin@example.org, CN=Example Certificate Authority
        Validity
            Not Before: Jun 22 14:43:04 2019 GMT
            Not After : Aug 21 14:43:04 2019 GMT
        Subject: C=FR, ST=Radius, O=Example Inc., CN=Example Server Certificate/emailAddress=admin@example.org
        Subject Public Key Info:
            Public Key Algorithm: rsaEncryption
                RSA Public-Key: (2048 bit)
                Modulus:
                    00:ae:f5:82:dd:83:7e:71:a7:e6:ec:68:17:10:82:
                    56:b5:b5:c9:18:1f:3e:a7:f2:4e:f3:d5:2c:54:31:
                    eb:cd:a4:0c:9f:dc:72:44:3b:62:93:90:bf:57:9c:
                    89:6b:4e:c9:b6:49:90:f1:b2:da:18:42:83:41:38:
                    36:a8:c6:4b:62:26:5e:4c:2a:3f:3b:92:5b:ee:ae:
                    45:83:93:8c:ec:ba:d3:0e:a9:13:b8:0d:d9:2a:7b:
                    07:bb:96:5a:81:37:50:96:59:f3:7d:a3:aa:ec:18:
                    e4:dd:0d:93:6f:01:33:89:30:93:df:20:23:ea:a0:
                    e5:23:56:49:3f:f0:f7:b4:33:86:cd:52:df:e7:56:
                    26:b9:41:c8:3f:74:e4:8b:61:7b:1b:17:bc:9c:3a:
                    5e:53:d7:70:e5:df:15:86:4f:f5:5a:1f:3e:fc:85:
                    38:04:58:51:15:bb:12:e2:25:ab:c0:89:cf:28:39:
                    71:23:a9:1d:4a:37:e1:b3:af:6c:f9:11:d7:d8:d6:
                    e4:20:10:9d:f3:d3:94:67:8f:18:c4:1a:a7:29:00:
                    5e:76:59:98:a4:a8:13:14:a5:59:5e:ad:59:4c:6c:
                    1b:09:89:fc:26:ed:49:48:0d:a7:9d:09:ec:44:dc:
                    eb:22:17:97:02:fe:f5:e5:36:57:00:6b:b1:15:28:
                    39:29
                Exponent: 65537 (0x10001)
        X509v3 extensions:
            X509v3 Extended Key Usage: 
                TLS Web Server Authentication
            X509v3 CRL Distribution Points: 

                Full Name:
                  URI:http://www.example.com/example_ca.crl

    Signature Algorithm: sha256WithRSAEncryption
         84:5f:d3:55:e6:8f:24:b4:a7:81:00:22:da:44:65:ed:6a:d5:
         7c:e9:05:70:a7:78:c1:98:89:ad:60:8b:f9:8c:22:70:7f:cd:
         6b:da:39:39:9d:e2:8c:58:93:3d:e8:e9:3d:94:33:e6:07:d6:
         ee:32:3a:46:13:e4:c1:df:6d:9d:b8:86:88:d0:a4:83:4f:61:
         a9:61:12:81:ba:4b:53:bb:f1:86:55:26:17:9e:0f:fe:75:00:
         77:c0:6e:3d:e2:6a:e6:9e:e5:fd:82:88:3b:79:82:40:2c:1a:
         f8:9c:51:d4:49:0e:35:57:8a:37:c1:cc:88:10:bb:f2:d3:67:
         65:88:de:dc:1b:b4:b7:8f:85:47:05:a0:df:7f:bc:0f:1b:6a:
         2d:8d:1c:3b:d7:20:04:7b:f7:33:39:a3:cf:cb:12:cd:65:6e:
         92:9b:07:e2:ae:fd:da:67:6c:f2:43:35:ee:25:d0:7d:e9:8b:
         11:82:ff:df:8f:f8:5d:b7:8d:f8:5c:40:ce:59:61:5b:05:94:
         be:fe:fb:41:8d:f5:3d:6b:ed:2d:85:c4:51:6a:5e:6b:e3:9c:
         7f:0d:9c:a2:62:0c:9a:61:00:5f:7b:cb:17:3b:88:6a:7e:c5:
         d8:ba:52:ea:ca:ec:91:5b:25:3e:33:a4:ac:7b:7c:1e:12:e2:
         26:72:f4:ef
-----BEGIN CERTIFICATE-----
MIID2jCCAsKgAwIBAgIBATANBgkqhkiG9w0BAQsFADCBkzELMAkGA1UEBhMCRlIx
DzANBgNVBAgMBlJhZGl1czESMBAGA1UEBwwJU29tZXdoZXJlMRUwEwYDVQQKDAxF
eGFtcGxlIEluYy4xIDAeBgkqhkiG9w0BCQEWEWFkbWluQGV4YW1wbGUub3JnMSYw
JAYDVQQDDB1FeGFtcGxlIENlcnRpZmljYXRlIEF1dGhvcml0eTAeFw0xOTA2MjIx
NDQzMDRaFw0xOTA4MjExNDQzMDRaMHwxCzAJBgNVBAYTAkZSMQ8wDQYDVQQIDAZS
YWRpdXMxFTATBgNVBAoMDEV4YW1wbGUgSW5jLjEjMCEGA1UEAwwaRXhhbXBsZSBT
ZXJ2ZXIgQ2VydGlmaWNhdGUxIDAeBgkqhkiG9w0BCQEWEWFkbWluQGV4YW1wbGUu
b3JnMIIBIjANBgkqhkiG9w0BAQEFAAOCAQ8AMIIBCgKCAQEArvWC3YN+cafm7GgX
EIJWtbXJGB8+p/JO89UsVDHrzaQMn9xyRDtik5C/V5yJa07JtkmQ8bLaGEKDQTg2
qMZLYiZeTCo/O5Jb7q5Fg5OM7LrTDqkTuA3ZKnsHu5ZagTdQllnzfaOq7Bjk3Q2T
bwEziTCT3yAj6qDlI1ZJP/D3tDOGzVLf51YmuUHIP3Tki2F7Gxe8nDpeU9dw5d8V
hk/1Wh8+/IU4BFhRFbsS4iWrwInPKDlxI6kdSjfhs69s+RHX2NbkIBCd89OUZ48Y
xBqnKQBedlmYpKgTFKVZXq1ZTGwbCYn8Ju1JSA2nnQnsRNzrIheXAv715TZXAGux
FSg5KQIDAQABo08wTTATBgNVHSUEDDAKBggrBgEFBQcDATA2BgNVHR8ELzAtMCug
KaAnhiVodHRwOi8vd3d3LmV4YW1wbGUuY29tL2V4YW1wbGVfY2EuY3JsMA0GCSqG
SIb3DQEBCwUAA4IBAQCEX9NV5o8ktKeBACLaRGXtatV86QVwp3jBmImtYIv5jCJw
f81r2jk5neKMWJM96Ok9lDPmB9buMjpGE+TB322duIaI0KSDT2GpYRKBuktTu/GG
VSYXng/+dQB3wG494mrmnuX9gog7eYJALBr4nFHUSQ41V4o3wcyIELvy02dliN7c
G7S3j4VHBaDff7wPG2otjRw71yAEe/czOaPPyxLNZW6Smwfirv3aZ2zyQzXuJdB9
6YsRgv/fj/hdt434XEDOWWFbBZS+/vtBjfU9a+0thcRRal5r45x/DZyiYgyaYQBf
e8sXO4hqfsXYulLqyuyRWyU+M6Sse3weEuImcvTv
-----END CERTIFICATE-----
