Certificate:
    Data:
        Version: 3 (0x2)
        Serial Number: 2 (0x2)
        Signature Algorithm: sha256WithRSAEncryption
        Issuer: C=FR, ST=Radius, L=Somewhere, O=Example Inc./emailAddress=admin@example.org, CN=Example Certificate Authority
        Validity
            Not Before: Jun 22 14:44:02 2019 GMT
            Not After : Aug 21 14:44:02 2019 GMT
        Subject: C=FR, ST=Radius, O=Example Inc., CN=user@example.org/emailAddress=user@example.org
        Subject Public Key Info:
            Public Key Algorithm: rsaEncryption
                RSA Public-Key: (2048 bit)
                Modulus:
                    00:b8:27:54:9e:e9:7a:63:52:c9:b2:f4:7d:c6:c6:
                    d1:b2:53:7f:70:e2:7c:30:d2:da:d8:17:24:bd:16:
                    50:04:6e:93:dd:b7:fa:94:29:cf:55:77:44:db:bd:
                    7d:76:3c:43:63:3b:f4:72:b1:b9:ba:18:af:e4:ac:
                    5e:05:6d:cb:60:ea:a9:11:d9:13:1b:4d:70:fa:2c:
                    c3:fc:5c:24:14:06:4b:ad:1b:93:c3:8a:8d:46:09:
                    10:62:67:4b:94:16:4d:74:92:ec:da:72:3c:e4:54:
                    03:2f:43:5b:0b:6c:fb:40:ee:80:21:f0:b4:72:89:
                    78:dd:78:74:0d:79:de:5f:30:52:d7:63:82:90:2f:
                    69:f9:4f:5d:ed:bd:aa:62:19:ea:9e:b9:89:a0:92:
                    3e:50:8a:4a:b3:92:b1:09:30:96:8d:cc:49:67:8c:
                    5c:c7:e0:0f:b3:25:5a:c4:2e:59:18:47:99:7d:19:
                    0b:f8:36:59:7a:ac:a0:70:9f:c6:78:1b:dd:95:53:
                    9d:97:ce:61:4c:7d:e3:2c:64:32:9d:b8:0f:1a:db:
                    56:e5:1e:06:98:8f:a4:f6:6f:01:3a:4a:d6:ea:84:
                    28:bd:70:1a:5c:e4:4e:72:2f:4f:30:50:90:6d:c2:
                    35:7e:53:88:04:58:e8:ac:00:c0:2d:94:d2:9d:17:
                    25:b3
                Exponent: 65537 (0x10001)
        X509v3 extensions:
            X509v3 Extended Key Usage: 
                TLS Web Client Authentication
            X509v3 CRL Distribution Points: 

                Full Name:
                  URI:http://www.example.com/example_ca.crl

    Signature Algorithm: sha256WithRSAEncryption
         5b:c7:45:e4:a1:32:ed:da:09:c7:11:87:9a:a6:7a:9c:75:40:
         1f:65:74:08:61:89:d3:94:f6:f2:f6:22:41:58:71:5e:66:1c:
         ad:c8:55:48:9a:e9:31:7d:30:c8:ab:8f:1e:a7:d1:93:42:74:
         62:5e:58:6f:05:61:1b:f3:2a:58:56:d7:c4:32:b5:aa:73:24:
         c7:ca:fd:33:bd:75:df:74:0c:b0:1d:b6:23:32:02:60:cc:1d:
         50:92:b5:df:72:2f:15:a9:13:a9:83:66:66:09:6a:46:4f:48:
         a3:1c:6e:f3:9e:61:50:18:ab:f9:2a:29:a3:a2:9d:b8:e6:b7:
         45:5f:f0:55:74:67:b8:30:6c:1a:6c:df:ef:43:df:f3:f3:53:
         b1:1a:f3:eb:33:2e:b5:45:03:db:01:ef:6d:f2:c4:42:a4:77:
         ed:13:1a:55:82:c4:b9:e0:63:57:4f:c2:68:74:f0:bb:96:48:
         67:72:25:df:de:a2:16:04:0b:7f:68:c8:08:63:cd:22:84:fe:
         1a:04:bb:ec:cc:6d:fd:c1:29:ef:a4:cd:d7:09:38:17:2f:b2:
         04:2d:47:52:31:cb:43:b2:51:2d:d5:1b:47:02:11:fe:64:b5:
         ef:40:fc:46:30:6c:1b:5d:da:df:72:66:d6:d1:a6:a9:c1:e5:
         56:32:5c:08
-----BEGIN CERTIFICATE-----
MIIDzzCCAregAwIBAgIBAjANBgkqhkiG9w0BAQsFADCBkzELMAkGA1UEBhMCRlIx
DzANBgNVBAgMBlJhZGl1czESMBAGA1UEBwwJU29tZXdoZXJlMRUwEwYDVQQKDAxF
eGFtcGxlIEluYy4xIDAeBgkqhkiG9w0BCQEWEWFkbWluQGV4YW1wbGUub3JnMSYw
JAYDVQQDDB1FeGFtcGxlIENlcnRpZmljYXRlIEF1dGhvcml0eTAeFw0xOTA2MjIx
NDQ0MDJaFw0xOTA4MjExNDQ0MDJaMHExCzAJBgNVBAYTAkZSMQ8wDQYDVQQIDAZS
YWRpdXMxFTATBgNVBAoMDEV4YW1wbGUgSW5jLjEZMBcGA1UEAwwQdXNlckBleGFt
cGxlLm9yZzEfMB0GCSqGSIb3DQEJARYQdXNlckBleGFtcGxlLm9yZzCCASIwDQYJ
KoZIhvcNAQEBBQADggEPADCCAQoCggEBALgnVJ7pemNSybL0fcbG0bJTf3DifDDS
2tgXJL0WUARuk923+pQpz1V3RNu9fXY8Q2M79HKxuboYr+SsXgVty2DqqRHZExtN
cPosw/xcJBQGS60bk8OKjUYJEGJnS5QWTXSS7NpyPORUAy9DWwts+0DugCHwtHKJ
eN14dA153l8wUtdjgpAvaflPXe29qmIZ6p65iaCSPlCKSrOSsQkwlo3MSWeMXMfg
D7MlWsQuWRhHmX0ZC/g2WXqsoHCfxngb3ZVTnZfOYUx94yxkMp24DxrbVuUeBpiP
pPZvATpK1uqEKL1wGlzkTnIvTzBQkG3CNX5TiARY6KwAwC2U0p0XJbMCAwEAAaNP
ME0wEwYDVR0lBAwwCgYIKwYBBQUHAwIwNgYDVR0fBC8wLTAroCmgJ4YlaHR0cDov
L3d3dy5leGFtcGxlLmNvbS9leGFtcGxlX2NhLmNybDANBgkqhkiG9w0BAQsFAAOC
AQEAW8dF5KEy7doJxxGHmqZ6nHVAH2V0CGGJ05T28vYiQVhxXmYcrchVSJrpMX0w
yKuPHqfRk0J0Yl5YbwVhG/MqWFbXxDK1qnMkx8r9M71133QMsB22IzICYMwdUJK1
33IvFakTqYNmZglqRk9Ioxxu855hUBir+Sopo6KduOa3RV/wVXRnuDBsGmzf70Pf
8/NTsRrz6zMutUUD2wHvbfLEQqR37RMaVYLEueBjV0/CaHTwu5ZIZ3Il396iFgQL
f2jICGPNIoT+GgS77Mxt/cEp76TN1wk4Fy+yBC1HUjHLQ7JRLdUbRwIR/mS170D8
RjBsG13a33Jm1tGmqcHlVjJcCA==
-----END CERTIFICATE-----
